target datalayout = "e-m:e-p270:32:32-p271:32:32-p272:64:64-i64:64-i128:128-f80:128-n8:16:32:64-S128"
target triple = "x86_64-pc-linux-gnu"

%struct.CVodeMemRec = type { double, ptr, ptr, i32, i32, i32, double, double, ptr, i32, ptr, ptr, i32, ptr, i32, i32, double, double, ptr, i32, i32, i32, ptr, ptr, ptr, i32, i32, ptr, ptr, ptr, i32, double, i32, i32, double, ptr, ptr, i32, ptr, ptr, i32, i32, i32, double, ptr, ptr, [13 x ptr], ptr, ptr, ptr, ptr, ptr, [13 x ptr], ptr, ptr, ptr, ptr, [13 x ptr], ptr, ptr, ptr, ptr, ptr, i32, [13 x ptr], ptr, ptr, ptr, ptr, ptr, i32, double, i32, i32, i32, i32, i32, double, double, double, double, double, double, double, double, [14 x double], [6 x double], [13 x double], double, double, double, double, double, double, double, double, double, double, double, i32, ptr, i32, i64, i32, i32, i32, i32, i32, double, double, double, i64, i64, i64, i64, i64, i64, i64, i64, i64, ptr, i64, i64, ptr, i64, i64, i64, i64, i64, i64, i32, i64, i64, i64, i64, i64, i64, double, double, double, ptr, ptr, ptr, ptr, ptr, i32, i32, i64, double, double, double, i32, double, i32, i32, i32, i32, i32, i32, i32, i32, i32, i32, i32, i32, i32, i32, i32, i32, ptr, ptr, ptr, i32, [6 x [4 x double]], i32, i64, ptr, i32, ptr, ptr, double, double, double, ptr, ptr, ptr, double, double, i32, i32, i64, ptr, i32, i32, ptr, i32 }
%struct.CVSpilsMemRec = type { i32, i32, i32, double, double, double, double, i32, i64, i64, i64, i64, i64, i64, i64, ptr, ptr, ptr, ptr, ptr, ptr, ptr, ptr, ptr, i32, ptr, ptr, i64 }

; Function Attrs: nounwind uwtable
define internal void @CVSpgmrFree(ptr noundef %0) #0 {
  %2 = alloca ptr, align 8
  %3 = alloca ptr, align 8
  %4 = alloca ptr, align 8
  store ptr %0, ptr %2, align 8, !tbaa !9
  call void @llvm.lifetime.start.p0(i64 8, ptr %3) #5
  call void @llvm.lifetime.start.p0(i64 8, ptr %4) #5
  %5 = load ptr, ptr %2, align 8, !tbaa !9
  %6 = getelementptr inbounds nuw %struct.CVodeMemRec, ptr %5, i32 0, i32 144
  %7 = load ptr, ptr %6, align 8, !tbaa !55
  store ptr %7, ptr %3, align 8, !tbaa !31
  %8 = load ptr, ptr %3, align 8, !tbaa !31
  %9 = getelementptr inbounds nuw %struct.CVSpilsMemRec, ptr %8, i32 0, i32 15
  %10 = load ptr, ptr %9, align 8, !tbaa !49
  call void @N_VDestroy(ptr noundef %10)
  %11 = load ptr, ptr %3, align 8, !tbaa !31
  %12 = getelementptr inbounds nuw %struct.CVSpilsMemRec, ptr %11, i32 0, i32 16
  %13 = load ptr, ptr %12, align 8, !tbaa !50
  call void @N_VDestroy(ptr noundef %13)
  %14 = load ptr, ptr %3, align 8, !tbaa !31
  %15 = getelementptr inbounds nuw %struct.CVSpilsMemRec, ptr %14, i32 0, i32 19
  %16 = load ptr, ptr %15, align 8, !tbaa !54
  store ptr %16, ptr %4, align 8, !tbaa !52
  %17 = load ptr, ptr %4, align 8, !tbaa !52
  call void @SpgmrFree(ptr noundef %17)
  %18 = load ptr, ptr %3, align 8, !tbaa !31
  %19 = getelementptr inbounds nuw %struct.CVSpilsMemRec, ptr %18, i32 0, i32 22
  %20 = load ptr, ptr %19, align 8, !tbaa !42
  %21 = icmp ne ptr %20, null
  br i1 %21, label %22, label %27

22:                                               ; preds = %1
  %23 = load ptr, ptr %3, align 8, !tbaa !31
  %24 = getelementptr inbounds nuw %struct.CVSpilsMemRec, ptr %23, i32 0, i32 22
  %25 = load ptr, ptr %24, align 8, !tbaa !42
  %26 = load ptr, ptr %2, align 8, !tbaa !9
  call void %25(ptr noundef %26)
  br label %27

27:                                               ; preds = %22, %1
  %28 = load ptr, ptr %3, align 8, !tbaa !31
  call void @free(ptr noundef %28) #5
  %29 = load ptr, ptr %2, align 8, !tbaa !9
  %30 = getelementptr inbounds nuw %struct.CVodeMemRec, ptr %29, i32 0, i32 144
  store ptr null, ptr %30, align 8, !tbaa !55
  call void @llvm.lifetime.end.p0(i64 8, ptr %4) #5
  call void @llvm.lifetime.end.p0(i64 8, ptr %3) #5
  ret void
}